target datalayout = "e-m:e-p270:32:32-p271:32:32-p272:64:64-i64:64-i128:128-f80:128-n8:16:32:64-S128"
target triple = "x86_64-pc-linux-gnu"

%struct.phpdbg_btree = type { i64, i64, i8, ptr }

; Function Attrs: nounwind uwtable
define hidden ptr @phpdbg_btree_find(ptr noundef %0, i64 noundef %1) #0 {
  %3 = alloca ptr, align 8
  %4 = alloca ptr, align 8
  %5 = alloca i64, align 8
  %6 = alloca ptr, align 8
  %7 = alloca i32, align 4
  store ptr %0, ptr %4, align 8
  store i64 %1, ptr %5, align 8
  %8 = load ptr, ptr %4, align 8
  %9 = getelementptr inbounds %struct.phpdbg_btree, ptr %8, i32 0, i32 3
  %10 = load ptr, ptr %9, align 8
  store ptr %10, ptr %6, align 8
  %11 = load ptr, ptr %4, align 8
  %12 = getelementptr inbounds %struct.phpdbg_btree, ptr %11, i32 0, i32 1
  %13 = load i64, ptr %12, align 8
  %14 = sub i64 %13, 1
  %15 = trunc i64 %14 to i32
  store i32 %15, ptr %7, align 4
  %16 = load ptr, ptr %6, align 8
  %17 = icmp eq ptr %16, null
  br i1 %17, label %18, label %19

18:                                               ; preds = %2
  store ptr null, ptr %3, align 8
  br label %56

19:                                               ; preds = %2
  br label %20

20:                                               ; preds = %50, %19
  %21 = load i64, ptr %5, align 8
  %22 = load i32, ptr %7, align 4
  %23 = zext i32 %22 to i64
  %24 = lshr i64 %21, %23
  %25 = urem i64 %24, 2
  %26 = icmp eq i64 %25, 1
  br i1 %26, label %27, label %38

27:                                               ; preds = %20
  %28 = load ptr, ptr %6, align 8
  %29 = getelementptr inbounds [2 x ptr], ptr %28, i64 0, i64 1
  %30 = load ptr, ptr %29, align 8
  %31 = icmp ne ptr %30, null
  br i1 %31, label %32, label %36

32:                                               ; preds = %27
  %33 = load ptr, ptr %6, align 8
  %34 = getelementptr inbounds [2 x ptr], ptr %33, i64 0, i64 1
  %35 = load ptr, ptr %34, align 8
  store ptr %35, ptr %6, align 8
  br label %37

36:                                               ; preds = %27
  store ptr null, ptr %3, align 8
  br label %56

37:                                               ; preds = %32
  br label %49

38:                                               ; preds = %20
  %39 = load ptr, ptr %6, align 8
  %40 = getelementptr inbounds [2 x ptr], ptr %39, i64 0, i64 0
  %41 = load ptr, ptr %40, align 8
  %42 = icmp ne ptr %41, null
  br i1 %42, label %43, label %47

43:                                               ; preds = %38
  %44 = load ptr, ptr %6, align 8
  %45 = getelementptr inbounds [2 x ptr], ptr %44, i64 0, i64 0
  %46 = load ptr, ptr %45, align 8
  store ptr %46, ptr %6, align 8
  br label %48

47:                                               ; preds = %38
  store ptr null, ptr %3, align 8
  br label %56

48:                                               ; preds = %43
  br label %49

49:                                               ; preds = %48, %37
  br label %50

50:                                               ; preds = %49
  %51 = load i32, ptr %7, align 4
  %52 = add nsw i32 %51, -1
  store i32 %52, ptr %7, align 4
  %53 = icmp ne i32 %51, 0
  br i1 %53, label %20, label %54

54:                                               ; preds = %50
  %55 = load ptr, ptr %6, align 8
  store ptr %55, ptr %3, align 8
  br label %56

56:                                               ; preds = %54, %47, %36, %18
  %57 = load ptr, ptr %3, align 8
  ret ptr %57
}