; Function Attrs: nofree norecurse nosync nounwind memory(read, inaccessiblemem: none) uwtable
define hidden ptr @phpdbg_btree_find(ptr nocapture noundef readonly %0, i64 noundef %1) local_unnamed_addr #1 {
  %3 = getelementptr inbounds i8, ptr %0, i64 24
  %4 = load ptr, ptr %3, align 8
  %5 = icmp eq ptr %4, null
  br i1 %5, label %.loopexit, label %.preheader.preheader

.preheader.preheader:                             ; preds = %2
  %6 = getelementptr inbounds i8, ptr %0, i64 8
  %7 = load i64, ptr %6, align 8
  %8 = trunc i64 %7 to i32
  br label %.preheader

.preheader:                                       ; preds = %.preheader.preheader, %17
  %.011 = phi ptr [ %.1, %17 ], [ %4, %.preheader.preheader ]
  %.0.in = phi i32 [ %.0, %17 ], [ %8, %.preheader.preheader ]
  %.0 = add i32 %.0.in, -1
  %9 = zext nneg i32 %.0 to i64
  %10 = shl nuw i64 1, %9
  %11 = and i64 %10, %1
  %.not = icmp eq i64 %11, 0
  br i1 %.not, label %15, label %12

12:                                               ; preds = %.preheader
  %13 = getelementptr inbounds i8, ptr %.011, i64 8
  %14 = load ptr, ptr %13, align 8
  %.not17 = icmp eq ptr %14, null
  br i1 %.not17, label %.loopexit, label %17

15:                                               ; preds = %.preheader
  %16 = load ptr, ptr %.011, align 8
  %.not16 = icmp eq ptr %16, null
  br i1 %.not16, label %.loopexit, label %17

17:                                               ; preds = %15, %12
  %.1 = phi ptr [ %14, %12 ], [ %16, %15 ]
  %.not18 = icmp eq i32 %.0, 0
  br i1 %.not18, label %.loopexit, label %.preheader

.loopexit:                                        ; preds = %17, %15, %12, %2
  %.012 = phi ptr [ null, %2 ], [ %.1, %17 ], [ null, %15 ], [ null, %12 ]
  ret ptr %.012
}